; Function Attrs: nounwind uwtable
define zeroext i8 @l_Array_foldlMUnsafe_fold___at_Lake_Log_maxLv___spec__1(ptr noundef readonly captures(none) %0, i64 noundef %1, i64 noundef %2, i8 noundef zeroext %3) local_unnamed_addr #1 {
  %.not38 = icmp eq i64 %1, %2
  br i1 %.not38, label %._crit_edge, label %.lr.ph

.lr.ph:                                           ; preds = %4
  %5 = getelementptr inbounds nuw i8, ptr %0, i64 24
  br label %6

6:                                                ; preds = %.lr.ph, %30
  %.02240 = phi i64 [ %1, %.lr.ph ], [ %42, %30 ]
  %.02439 = phi i8 [ %3, %.lr.ph ], [ %.024., %30 ]
  %7 = getelementptr inbounds nuw [0 x ptr], ptr %5, i64 0, i64 %.02240
  %8 = load ptr, ptr %7, align 8, !tbaa !10
  %9 = ptrtoint ptr %8 to i64
  %10 = and i64 %9, 1
  %.not.i27 = icmp eq i64 %10, 0
  br i1 %.not.i27, label %11, label %lean_array_uget.exit

11:                                               ; preds = %6
  %.val.i.i = load i32, ptr %8, align 4, !tbaa !4
  %12 = icmp sgt i32 %.val.i.i, 0
  br i1 %12, label %13, label %15, !prof !9

13:                                               ; preds = %11
  %14 = add nuw i32 %.val.i.i, 1
  store i32 %14, ptr %8, align 4, !tbaa !4
  br label %21

15:                                               ; preds = %11
  %.not.i.i = icmp eq i32 %.val.i.i, 0
  br i1 %.not.i.i, label %.thread28, label %18

.thread28:                                        ; preds = %15
  %16 = getelementptr inbounds nuw i8, ptr %8, i64 16
  %17 = load i8, ptr %16, align 1, !tbaa !18
  br label %30

18:                                               ; preds = %15
  tail call void @lean_inc_ref_cold(ptr noundef nonnull %8) #9
  %.pr = load i32, ptr %8, align 4, !tbaa !4
  br label %21

lean_array_uget.exit:                             ; preds = %6
  %19 = getelementptr inbounds nuw i8, ptr %8, i64 16
  %20 = load i8, ptr %19, align 1, !tbaa !18
  br label %30

21:                                               ; preds = %13, %18
  %22 = phi i32 [ %14, %13 ], [ %.pr, %18 ]
  %23 = getelementptr inbounds nuw i8, ptr %8, i64 16
  %24 = load i8, ptr %23, align 1, !tbaa !18
  %25 = icmp sgt i32 %22, 1
  br i1 %25, label %26, label %28, !prof !14

26:                                               ; preds = %21
  %27 = add nsw i32 %22, -1
  store i32 %27, ptr %8, align 4, !tbaa !4
  br label %30

28:                                               ; preds = %21
  %.not.i = icmp eq i32 %22, 0
  br i1 %.not.i, label %30, label %29

29:                                               ; preds = %28
  tail call void @lean_dec_ref_cold(ptr noundef nonnull %8) #9
  br label %30

30:                                               ; preds = %lean_array_uget.exit, %.thread28, %26, %28, %29
  %31 = phi i8 [ %20, %lean_array_uget.exit ], [ %24, %26 ], [ %24, %28 ], [ %24, %29 ], [ %17, %.thread28 ]
  %32 = load ptr, ptr @l_Lake_instOrdLogLevel, align 8, !tbaa !10
  %33 = zext i8 %.02439 to i64
  %34 = shl nuw nsw i64 %33, 1
  %35 = or disjoint i64 %34, 1
  %36 = inttoptr i64 %35 to ptr
  %37 = zext i8 %31 to i64
  %38 = shl nuw nsw i64 %37, 1
  %39 = or disjoint i64 %38, 1
  %40 = inttoptr i64 %39 to ptr
  %41 = tail call zeroext i8 @l_Ord_instDecidableRelLe___rarg(ptr noundef %32, ptr noundef nonnull %36, ptr noundef nonnull %40) #9
  %42 = add i64 %.02240, 1
  %43 = icmp eq i8 %41, 0
  %.024. = select i1 %43, i8 %.02439, i8 %31
  %.not = icmp eq i64 %42, %2
  br i1 %.not, label %._crit_edge, label %6

._crit_edge:                                      ; preds = %30, %4
  %.024.lcssa = phi i8 [ %3, %4 ], [ %.024., %30 ]
  ret i8 %.024.lcssa
}